target datalayout = "e-m:e-p270:32:32-p271:32:32-p272:64:64-i64:64-i128:128-f80:128-n8:16:32:64-S128"
target triple = "x86_64-pc-linux-gnu"

%"class.cv::Matx.22" = type { [2 x float] }

@.str.30 = private unnamed_addr constant [5 x i8] c"(ff)\00", align 1

; Function Attrs: mustprogress nounwind uwtable
define linkonce_odr hidden noundef nonnull align 4 dereferenceable(4) ptr @_ZNK2cv3VecIfLi2EEixEi(ptr noundef nonnull align 4 dereferenceable(8) %0, i32 noundef %1) #5 comdat align 2 {
  %3 = alloca ptr, align 8
  %4 = alloca i32, align 4
  store ptr %0, ptr %3, align 8
  store i32 %1, ptr %4, align 4
  %5 = load ptr, ptr %3, align 8
  %6 = getelementptr inbounds %"class.cv::Matx.22", ptr %5, i32 0, i32 0
  %7 = load i32, ptr %4, align 4
  %8 = sext i32 %7 to i64
  %9 = getelementptr inbounds [2 x float], ptr %6, i64 0, i64 %8
  ret ptr %9
}

; Function Attrs: mustprogress uwtable
define hidden noundef ptr @_Z13pyopencv_fromRKN2cv3VecIfLi2EEE(ptr noundef nonnull align 4 dereferenceable(8) %0) #4 {
  %2 = alloca ptr, align 8
  store ptr %0, ptr %2, align 8
  %3 = load ptr, ptr %2, align 8
  %4 = call noundef nonnull align 4 dereferenceable(4) ptr @_ZNK2cv3VecIfLi2EEixEi(ptr noundef nonnull align 4 dereferenceable(8) %3, i32 noundef 0)
  %5 = load float, ptr %4, align 4
  %6 = fpext float %5 to double
  %7 = load ptr, ptr %2, align 8
  %8 = call noundef nonnull align 4 dereferenceable(4) ptr @_ZNK2cv3VecIfLi2EEixEi(ptr noundef nonnull align 4 dereferenceable(8) %7, i32 noundef 1)
  %9 = load float, ptr %8, align 4
  %10 = fpext float %9 to double
  %11 = call ptr (ptr, ...) @Py_BuildValue(ptr noundef @.str.30, double noundef %6, double noundef %10)
  ret ptr %11
}